target datalayout = "e-m:e-p270:32:32-p271:32:32-p272:64:64-i64:64-i128:128-f80:128-n8:16:32:64-S128"
target triple = "x86_64-pc-linux-gnu"

@H5P_CLS_DATASET_CREATE_ID_g = external global i64, align 8
@.str.1 = private unnamed_addr constant [104 x i8] c"generated/home/dtcxzyw/WorkSpace/Projects/compilers/llvm-opt-benchmark/bench/hdf5/hdf5/src/H5Zshuffle.c\00", align 1
@__func__.H5Z__set_local_shuffle = private unnamed_addr constant [23 x i8] c"H5Z__set_local_shuffle\00", align 1
@H5E_ID_g = external global i64, align 8
@H5E_BADID_g = external global i64, align 8
@.str.2 = private unnamed_addr constant [25 x i8] c"can't find object for ID\00", align 1
@H5E_ARGS_g = external global i64, align 8
@H5E_BADTYPE_g = external global i64, align 8
@.str.3 = private unnamed_addr constant [15 x i8] c"not a datatype\00", align 1
@H5E_PLINE_g = external global i64, align 8
@H5E_CANTGET_g = external global i64, align 8
@.str.4 = private unnamed_addr constant [29 x i8] c"can't get shuffle parameters\00", align 1
@.str.5 = private unnamed_addr constant [18 x i8] c"bad datatype size\00", align 1
@H5E_CANTSET_g = external global i64, align 8
@.str.6 = private unnamed_addr constant [35 x i8] c"can't set local shuffle parameters\00", align 1

; Function Attrs: nounwind uwtable
define internal i32 @H5Z__set_local_shuffle(i64 noundef %0, i64 noundef %1, i64 noundef %2) #0 {
  %4 = alloca i64, align 8
  %5 = alloca i64, align 8
  %6 = alloca i64, align 8
  %7 = alloca ptr, align 8
  %8 = alloca ptr, align 8
  %9 = alloca i32, align 4
  %10 = alloca i64, align 8
  %11 = alloca [1 x i32], align 4
  %12 = alloca i32, align 4
  %13 = alloca i8, align 1
  store i64 %0, ptr %4, align 8
  store i64 %1, ptr %5, align 8
  store i64 %2, ptr %6, align 8
  store i64 0, ptr %10, align 8
  store i32 0, ptr %12, align 4
  store i8 0, ptr %13, align 1
  %14 = load i64, ptr %4, align 8
  %15 = load i64, ptr @H5P_CLS_DATASET_CREATE_ID_g, align 8
  %16 = call ptr @H5P_object_verify(i64 noundef %14, i64 noundef %15)
  store ptr %16, ptr %7, align 8
  %17 = icmp eq ptr null, %16
  br i1 %17, label %18, label %33

18:                                               ; preds = %3
  br label %19

19:                                               ; preds = %18
  br label %20

20:                                               ; preds = %19
  br label %21

21:                                               ; preds = %20
  %22 = load i64, ptr @H5E_ID_g, align 8
  %23 = load i64, ptr @H5E_BADID_g, align 8
  %24 = call i32 (ptr, ptr, i32, i64, i64, ptr, ...) @H5E_printf_stack(ptr noundef @.str.1, ptr noundef @__func__.H5Z__set_local_shuffle, i32 noundef 68, i64 noundef %22, i64 noundef %23, ptr noundef @.str.2)
  br label %25

25:                                               ; preds = %21
  store i8 1, ptr %13, align 1
  %26 = load i8, ptr %13, align 1
  %27 = trunc i8 %26 to i1
  %28 = zext i1 %27 to i8
  store i8 %28, ptr %13, align 1
  br label %29

29:                                               ; preds = %25
  br label %30

30:                                               ; preds = %29
  store i32 -1, ptr %12, align 4
  br label %115

31:                                               ; No predecessors!
  br label %32

32:                                               ; preds = %31
  br label %33

33:                                               ; preds = %32, %3
  %34 = load i64, ptr %5, align 8
  %35 = call ptr @H5I_object_verify(i64 noundef %34, i32 noundef 3)
  store ptr %35, ptr %8, align 8
  %36 = icmp eq ptr null, %35
  br i1 %36, label %37, label %52

37:                                               ; preds = %33
  br label %38

38:                                               ; preds = %37
  br label %39

39:                                               ; preds = %38
  br label %40

40:                                               ; preds = %39
  %41 = load i64, ptr @H5E_ARGS_g, align 8
  %42 = load i64, ptr @H5E_BADTYPE_g, align 8
  %43 = call i32 (ptr, ptr, i32, i64, i64, ptr, ...) @H5E_printf_stack(ptr noundef @.str.1, ptr noundef @__func__.H5Z__set_local_shuffle, i32 noundef 72, i64 noundef %41, i64 noundef %42, ptr noundef @.str.3)
  br label %44

44:                                               ; preds = %40
  store i8 1, ptr %13, align 1
  %45 = load i8, ptr %13, align 1
  %46 = trunc i8 %45 to i1
  %47 = zext i1 %46 to i8
  store i8 %47, ptr %13, align 1
  br label %48

48:                                               ; preds = %44
  br label %49

49:                                               ; preds = %48
  store i32 -1, ptr %12, align 4
  br label %115

50:                                               ; No predecessors!
  br label %51

51:                                               ; preds = %50
  br label %52

52:                                               ; preds = %51, %33
  %53 = load ptr, ptr %7, align 8
  %54 = getelementptr inbounds [1 x i32], ptr %11, i64 0, i64 0
  %55 = call i32 @H5P_get_filter_by_id(ptr noundef %53, i32 noundef 2, ptr noundef %9, ptr noundef %10, ptr noundef %54, i64 noundef 0, ptr noundef null, ptr noundef null)
  %56 = icmp slt i32 %55, 0
  br i1 %56, label %57, label %72

57:                                               ; preds = %52
  br label %58

58:                                               ; preds = %57
  br label %59

59:                                               ; preds = %58
  br label %60

60:                                               ; preds = %59
  %61 = load i64, ptr @H5E_PLINE_g, align 8
  %62 = load i64, ptr @H5E_CANTGET_g, align 8
  %63 = call i32 (ptr, ptr, i32, i64, i64, ptr, ...) @H5E_printf_stack(ptr noundef @.str.1, ptr noundef @__func__.H5Z__set_local_shuffle, i32 noundef 77, i64 noundef %61, i64 noundef %62, ptr noundef @.str.4)
  br label %64

64:                                               ; preds = %60
  store i8 1, ptr %13, align 1
  %65 = load i8, ptr %13, align 1
  %66 = trunc i8 %65 to i1
  %67 = zext i1 %66 to i8
  store i8 %67, ptr %13, align 1
  br label %68

68:                                               ; preds = %64
  br label %69

69:                                               ; preds = %68
  store i32 -1, ptr %12, align 4
  br label %115

70:                                               ; No predecessors!
  br label %71

71:                                               ; preds = %70
  br label %72

72:                                               ; preds = %71, %52
  %73 = load ptr, ptr %8, align 8
  %74 = call i64 @H5T_get_size(ptr noundef %73)
  %75 = trunc i64 %74 to i32
  %76 = getelementptr inbounds [1 x i32], ptr %11, i64 0, i64 0
  store i32 %75, ptr %76, align 4
  %77 = icmp eq i32 %75, 0
  br i1 %77, label %78, label %93

78:                                               ; preds = %72
  br label %79

79:                                               ; preds = %78
  br label %80

80:                                               ; preds = %79
  br label %81

81:                                               ; preds = %80
  %82 = load i64, ptr @H5E_PLINE_g, align 8
  %83 = load i64, ptr @H5E_BADTYPE_g, align 8
  %84 = call i32 (ptr, ptr, i32, i64, i64, ptr, ...) @H5E_printf_stack(ptr noundef @.str.1, ptr noundef @__func__.H5Z__set_local_shuffle, i32 noundef 81, i64 noundef %82, i64 noundef %83, ptr noundef @.str.5)
  br label %85

85:                                               ; preds = %81
  store i8 1, ptr %13, align 1
  %86 = load i8, ptr %13, align 1
  %87 = trunc i8 %86 to i1
  %88 = zext i1 %87 to i8
  store i8 %88, ptr %13, align 1
  br label %89

89:                                               ; preds = %85
  br label %90

90:                                               ; preds = %89
  store i32 -1, ptr %12, align 4
  br label %115

91:                                               ; No predecessors!
  br label %92

92:                                               ; preds = %91
  br label %93

93:                                               ; preds = %92, %72
  %94 = load ptr, ptr %7, align 8
  %95 = load i32, ptr %9, align 4
  %96 = getelementptr inbounds [1 x i32], ptr %11, i64 0, i64 0
  %97 = call i32 @H5P_modify_filter(ptr noundef %94, i32 noundef 2, i32 noundef %95, i64 noundef 1, ptr noundef %96)
  %98 = icmp slt i32 %97, 0
  br i1 %98, label %99, label %114

99:                                               ; preds = %93
  br label %100

100:                                              ; preds = %99
  br label %101

101:                                              ; preds = %100
  br label %102

102:                                              ; preds = %101
  %103 = load i64, ptr @H5E_PLINE_g, align 8
  %104 = load i64, ptr @H5E_CANTSET_g, align 8
  %105 = call i32 (ptr, ptr, i32, i64, i64, ptr, ...) @H5E_printf_stack(ptr noundef @.str.1, ptr noundef @__func__.H5Z__set_local_shuffle, i32 noundef 86, i64 noundef %103, i64 noundef %104, ptr noundef @.str.6)
  br label %106

106:                                              ; preds = %102
  store i8 1, ptr %13, align 1
  %107 = load i8, ptr %13, align 1
  %108 = trunc i8 %107 to i1
  %109 = zext i1 %108 to i8
  store i8 %109, ptr %13, align 1
  br label %110

110:                                              ; preds = %106
  br label %111

111:                                              ; preds = %110
  store i32 -1, ptr %12, align 4
  br label %115

112:                                              ; No predecessors!
  br label %113

113:                                              ; preds = %112
  br label %114

114:                                              ; preds = %113, %93
  br label %115

115:                                              ; preds = %114, %111, %90, %69, %49, %30
  %116 = load i32, ptr %12, align 4
  ret i32 %116
}