; Function Attrs: nounwind uwtable
define internal range(i32 -1, 1) i32 @H5Z__set_local_shuffle(i64 noundef %0, i64 noundef %1, i64 %2) #0 {
  %4 = alloca i32, align 4
  %5 = alloca i64, align 8
  %6 = alloca [1 x i32], align 4
  store i64 0, ptr %5, align 8
  %7 = load i64, ptr @H5P_CLS_DATASET_CREATE_ID_g, align 8
  %8 = tail call ptr @H5P_object_verify(i64 noundef %0, i64 noundef %7) #4
  %9 = icmp eq ptr %8, null
  br i1 %9, label %10, label %14

10:                                               ; preds = %3
  %11 = load i64, ptr @H5E_ID_g, align 8
  %12 = load i64, ptr @H5E_BADID_g, align 8
  %13 = tail call i32 (ptr, ptr, i32, i64, i64, ptr, ...) @H5E_printf_stack(ptr noundef nonnull @.str.1, ptr noundef nonnull @__func__.H5Z__set_local_shuffle, i32 noundef 68, i64 noundef %11, i64 noundef %12, ptr noundef nonnull @.str.2) #4
  br label %44

14:                                               ; preds = %3
  %15 = tail call ptr @H5I_object_verify(i64 noundef %1, i32 noundef 3) #4
  %16 = icmp eq ptr %15, null
  br i1 %16, label %17, label %21

17:                                               ; preds = %14
  %18 = load i64, ptr @H5E_ARGS_g, align 8
  %19 = load i64, ptr @H5E_BADTYPE_g, align 8
  %20 = tail call i32 (ptr, ptr, i32, i64, i64, ptr, ...) @H5E_printf_stack(ptr noundef nonnull @.str.1, ptr noundef nonnull @__func__.H5Z__set_local_shuffle, i32 noundef 72, i64 noundef %18, i64 noundef %19, ptr noundef nonnull @.str.3) #4
  br label %44

21:                                               ; preds = %14
  %22 = call i32 @H5P_get_filter_by_id(ptr noundef nonnull %8, i32 noundef 2, ptr noundef nonnull %4, ptr noundef nonnull %5, ptr noundef nonnull %6, i64 noundef 0, ptr noundef null, ptr noundef null) #4
  %23 = icmp slt i32 %22, 0
  br i1 %23, label %24, label %28

24:                                               ; preds = %21
  %25 = load i64, ptr @H5E_PLINE_g, align 8
  %26 = load i64, ptr @H5E_CANTGET_g, align 8
  %27 = call i32 (ptr, ptr, i32, i64, i64, ptr, ...) @H5E_printf_stack(ptr noundef nonnull @.str.1, ptr noundef nonnull @__func__.H5Z__set_local_shuffle, i32 noundef 77, i64 noundef %25, i64 noundef %26, ptr noundef nonnull @.str.4) #4
  br label %44

28:                                               ; preds = %21
  %29 = call i64 @H5T_get_size(ptr noundef nonnull %15) #4
  %30 = trunc i64 %29 to i32
  store i32 %30, ptr %6, align 4
  %31 = icmp eq i32 %30, 0
  br i1 %31, label %32, label %36

32:                                               ; preds = %28
  %33 = load i64, ptr @H5E_PLINE_g, align 8
  %34 = load i64, ptr @H5E_BADTYPE_g, align 8
  %35 = call i32 (ptr, ptr, i32, i64, i64, ptr, ...) @H5E_printf_stack(ptr noundef nonnull @.str.1, ptr noundef nonnull @__func__.H5Z__set_local_shuffle, i32 noundef 81, i64 noundef %33, i64 noundef %34, ptr noundef nonnull @.str.5) #4
  br label %44

36:                                               ; preds = %28
  %37 = load i32, ptr %4, align 4
  %38 = call i32 @H5P_modify_filter(ptr noundef nonnull %8, i32 noundef 2, i32 noundef %37, i64 noundef 1, ptr noundef nonnull %6) #4
  %39 = icmp slt i32 %38, 0
  br i1 %39, label %40, label %44

40:                                               ; preds = %36
  %41 = load i64, ptr @H5E_PLINE_g, align 8
  %42 = load i64, ptr @H5E_CANTSET_g, align 8
  %43 = call i32 (ptr, ptr, i32, i64, i64, ptr, ...) @H5E_printf_stack(ptr noundef nonnull @.str.1, ptr noundef nonnull @__func__.H5Z__set_local_shuffle, i32 noundef 86, i64 noundef %41, i64 noundef %42, ptr noundef nonnull @.str.6) #4
  br label %44

44:                                               ; preds = %36, %40, %32, %24, %17, %10
  %.0 = phi i32 [ -1, %10 ], [ -1, %17 ], [ -1, %24 ], [ -1, %32 ], [ -1, %40 ], [ 0, %36 ]
  ret i32 %.0
}